target datalayout = "e-m:e-p270:32:32-p271:32:32-p272:64:64-i64:64-i128:128-f80:128-n8:16:32:64-S128"
target triple = "x86_64-pc-linux-gnu"

%struct.__ncnn_datareader_t = type { ptr, ptr, ptr }
%struct.__ncnn_modelbin_t = type { ptr, ptr, ptr, ptr }
%class.ModelBinFromDataReader_c_api = type { %"class.ncnn::ModelBinFromDataReader", ptr }
%"class.ncnn::ModelBinFromDataReader" = type { %"class.ncnn::ModelBin", ptr }
%"class.ncnn::ModelBin" = type { ptr }

; Function Attrs: mustprogress uwtable
define linkonce_odr hidden void @_ZN28ModelBinFromDataReader_c_apiC2EP17__ncnn_modelbin_tRKN4ncnn10DataReaderE(ptr noundef nonnull align 8 dereferenceable(24) %0, ptr noundef %1, ptr noundef nonnull align 8 dereferenceable(8) %2) unnamed_addr #1 comdat align 2 {
  %4 = alloca ptr, align 8
  %5 = alloca ptr, align 8
  %6 = alloca ptr, align 8
  store ptr %0, ptr %4, align 8
  store ptr %1, ptr %5, align 8
  store ptr %2, ptr %6, align 8
  %7 = load ptr, ptr %4, align 8
  %8 = load ptr, ptr %6, align 8
  call void @_ZN4ncnn22ModelBinFromDataReaderC2ERKNS_10DataReaderE(ptr noundef nonnull align 8 dereferenceable(16) %7, ptr noundef nonnull align 8 dereferenceable(8) %8)
  store ptr getelementptr inbounds inrange(-16, 48) ({ [8 x ptr] }, ptr @_ZTV28ModelBinFromDataReader_c_api, i32 0, i32 0, i32 2), ptr %7, align 8
  %9 = load ptr, ptr %5, align 8
  %10 = getelementptr inbounds nuw %class.ModelBinFromDataReader_c_api, ptr %7, i32 0, i32 1
  store ptr %9, ptr %10, align 8
  ret void
}

; Function Attrs: mustprogress uwtable
define hidden ptr @ncnn_modelbin_create_from_datareader(ptr noundef %0) #1 personality ptr @__gxx_personality_v0 {
  %2 = alloca ptr, align 8
  %3 = alloca ptr, align 8
  %4 = alloca ptr, align 8
  %5 = alloca i32, align 4
  store ptr %0, ptr %2, align 8
  %6 = call noalias ptr @malloc(i64 noundef 32) #12
  store ptr %6, ptr %3, align 8
  %7 = call noalias noundef nonnull ptr @_Znwm(i64 noundef 24) #13
  %8 = load ptr, ptr %3, align 8
  %9 = load ptr, ptr %2, align 8
  %10 = getelementptr inbounds nuw %struct.__ncnn_datareader_t, ptr %9, i32 0, i32 0
  %11 = load ptr, ptr %10, align 8
  invoke void @_ZN28ModelBinFromDataReader_c_apiC2EP17__ncnn_modelbin_tRKN4ncnn10DataReaderE(ptr noundef nonnull align 8 dereferenceable(24) %7, ptr noundef %8, ptr noundef nonnull align 8 dereferenceable(8) %11)
          to label %12 unwind label %22

12:                                               ; preds = %1
  %13 = load ptr, ptr %3, align 8
  %14 = getelementptr inbounds nuw %struct.__ncnn_modelbin_t, ptr %13, i32 0, i32 0
  store ptr %7, ptr %14, align 8
  %15 = load ptr, ptr %3, align 8
  %16 = getelementptr inbounds nuw %struct.__ncnn_modelbin_t, ptr %15, i32 0, i32 1
  store ptr @_ZL37__ncnn_ModelBinFromDataReader_load_1dP17__ncnn_modelbin_tii, ptr %16, align 8
  %17 = load ptr, ptr %3, align 8
  %18 = getelementptr inbounds nuw %struct.__ncnn_modelbin_t, ptr %17, i32 0, i32 2
  store ptr @_ZL37__ncnn_ModelBinFromDataReader_load_2dP17__ncnn_modelbin_tiii, ptr %18, align 8
  %19 = load ptr, ptr %3, align 8
  %20 = getelementptr inbounds nuw %struct.__ncnn_modelbin_t, ptr %19, i32 0, i32 3
  store ptr @_ZL37__ncnn_ModelBinFromDataReader_load_3dP17__ncnn_modelbin_tiiii, ptr %20, align 8
  %21 = load ptr, ptr %3, align 8
  ret ptr %21

22:                                               ; preds = %1
  %23 = landingpad { ptr, i32 }
          cleanup
  %24 = extractvalue { ptr, i32 } %23, 0
  store ptr %24, ptr %4, align 8
  %25 = extractvalue { ptr, i32 } %23, 1
  store i32 %25, ptr %5, align 4
  call void @_ZdlPvm(ptr noundef %7, i64 noundef 24) #14
  br label %26

26:                                               ; preds = %22
  %27 = load ptr, ptr %4, align 8
  %28 = load i32, ptr %5, align 4
  %29 = insertvalue { ptr, i32 } poison, ptr %27, 0
  %30 = insertvalue { ptr, i32 } %29, i32 %28, 1
  resume { ptr, i32 } %30
}