; Function Attrs: mustprogress uwtable
define hidden noundef ptr @ncnn_modelbin_create_from_datareader(ptr nocapture noundef readonly %0) local_unnamed_addr #1 personality ptr @__gxx_personality_v0 {
  %2 = tail call noalias dereferenceable_or_null(32) ptr @malloc(i64 noundef 32) #23
  %3 = tail call noalias noundef nonnull dereferenceable(24) ptr @_Znwm(i64 noundef 24) #24
  %4 = load ptr, ptr %0, align 8
  invoke void @_ZN4ncnn22ModelBinFromDataReaderC2ERKNS_10DataReaderE(ptr noundef nonnull align 8 dereferenceable(16) %3, ptr noundef nonnull align 8 dereferenceable(8) %4)
          to label %5 unwind label %10

5:                                                ; preds = %1
  store ptr getelementptr inbounds inrange(-16, 48) (i8, ptr @_ZTV28ModelBinFromDataReader_c_api, i64 16), ptr %3, align 8
  %6 = getelementptr inbounds nuw i8, ptr %3, i64 16
  store ptr %2, ptr %6, align 8
  store ptr %3, ptr %2, align 8
  %7 = getelementptr inbounds nuw i8, ptr %2, i64 8
  store ptr @_ZL37__ncnn_ModelBinFromDataReader_load_1dP17__ncnn_modelbin_tii, ptr %7, align 8
  %8 = getelementptr inbounds nuw i8, ptr %2, i64 16
  store ptr @_ZL37__ncnn_ModelBinFromDataReader_load_2dP17__ncnn_modelbin_tiii, ptr %8, align 8
  %9 = getelementptr inbounds nuw i8, ptr %2, i64 24
  store ptr @_ZL37__ncnn_ModelBinFromDataReader_load_3dP17__ncnn_modelbin_tiiii, ptr %9, align 8
  ret ptr %2

10:                                               ; preds = %1
  %11 = landingpad { ptr, i32 }
          cleanup
  tail call void @_ZdlPvm(ptr noundef nonnull %3, i64 noundef 24) #25
  resume { ptr, i32 } %11
}